ARM GAS  C:\Users\MARKOM~1\AppData\Local\Temp\ccZEvdWF.s 			page 1


   1              		.cpu cortex-m3
   2              		.eabi_attribute 20, 1
   3              		.eabi_attribute 21, 1
   4              		.eabi_attribute 23, 3
   5              		.eabi_attribute 24, 1
   6              		.eabi_attribute 25, 1
   7              		.eabi_attribute 26, 1
   8              		.eabi_attribute 30, 1
   9              		.eabi_attribute 34, 1
  10              		.eabi_attribute 18, 4
  11              		.file	"main.c"
  12              		.text
  13              	.Ltext0:
  14              		.cfi_sections	.debug_frame
  15              		.section	.text.SystemClock_Config,"ax",%progbits
  16              		.align	1
  17              		.global	SystemClock_Config
  18              		.arch armv7-m
  19              		.syntax unified
  20              		.thumb
  21              		.thumb_func
  22              		.fpu softvfp
  24              	SystemClock_Config:
  25              	.LFB70:
  26              		.file 1 "../Core/Src/main.c"
   1:../Core/Src/main.c **** 
  27              		.loc 1 120 1 view -0
  28              		.cfi_startproc
  29              		@ args = 0, pretend = 0, frame = 64
  30              		@ frame_needed = 0, uses_anonymous_args = 0
  31 0000 10B5     		push	{r4, lr}
  32              	.LCFI0:
  33              		.cfi_def_cfa_offset 8
  34              		.cfi_offset 4, -8
  35              		.cfi_offset 14, -4
  36 0002 90B0     		sub	sp, sp, #64
  37              	.LCFI1:
  38              		.cfi_def_cfa_offset 72
  39              		.loc 1 121 3 view .LVU1
  40              		.loc 1 121 22 is_stmt 0 view .LVU2
  41 0004 2422     		movs	r2, #36
  42 0006 0021     		movs	r1, #0
  43 0008 07A8     		add	r0, sp, #28
  44 000a 0F4B     		ldr	r3, .L3
  45 000c 9847     		blx	r3
  46              	.LVL0:
  47              		.loc 1 122 3 is_stmt 1 view .LVU3
  48              		.loc 1 122 22 is_stmt 0 view .LVU4
  49 000e 0024     		movs	r4, #0
  50 0010 0194     		str	r4, [sp, #4]
  51 0012 0294     		str	r4, [sp, #8]
  52 0014 0394     		str	r4, [sp, #12]
  53 0016 0494     		str	r4, [sp, #16]
  54 0018 0594     		str	r4, [sp, #20]
  55              		.loc 1 127 3 is_stmt 1 view .LVU5
  56              		.loc 1 127 36 is_stmt 0 view .LVU6
  57 001a 0223     		movs	r3, #2
ARM GAS  C:\Users\MARKOM~1\AppData\Local\Temp\ccZEvdWF.s 			page 2


  58 001c 0693     		str	r3, [sp, #24]
  59              		.loc 1 128 3 is_stmt 1 view .LVU7
  60              		.loc 1 128 30 is_stmt 0 view .LVU8
  61 001e 0123     		movs	r3, #1
  62 0020 0A93     		str	r3, [sp, #40]
  63              		.loc 1 129 3 is_stmt 1 view .LVU9
  64              		.loc 1 129 41 is_stmt 0 view .LVU10
  65 0022 1023     		movs	r3, #16
  66 0024 0B93     		str	r3, [sp, #44]
  67              		.loc 1 130 3 is_stmt 1 view .LVU11
  68              		.loc 1 130 34 is_stmt 0 view .LVU12
  69 0026 0D94     		str	r4, [sp, #52]
  70              		.loc 1 131 3 is_stmt 1 view .LVU13
  71              		.loc 1 131 7 is_stmt 0 view .LVU14
  72 0028 06A8     		add	r0, sp, #24
  73 002a 084B     		ldr	r3, .L3+4
  74 002c 9847     		blx	r3
  75              	.LVL1:
  76              		.loc 1 137 3 is_stmt 1 view .LVU15
  77              		.loc 1 137 31 is_stmt 0 view .LVU16
  78 002e 0F23     		movs	r3, #15
  79 0030 0193     		str	r3, [sp, #4]
  80              		.loc 1 139 3 is_stmt 1 view .LVU17
  81              		.loc 1 139 34 is_stmt 0 view .LVU18
  82 0032 0294     		str	r4, [sp, #8]
  83              		.loc 1 140 3 is_stmt 1 view .LVU19
  84              		.loc 1 140 35 is_stmt 0 view .LVU20
  85 0034 0394     		str	r4, [sp, #12]
  86              		.loc 1 141 3 is_stmt 1 view .LVU21
  87              		.loc 1 141 36 is_stmt 0 view .LVU22
  88 0036 0494     		str	r4, [sp, #16]
  89              		.loc 1 142 3 is_stmt 1 view .LVU23
  90              		.loc 1 142 36 is_stmt 0 view .LVU24
  91 0038 0594     		str	r4, [sp, #20]
  92              		.loc 1 144 3 is_stmt 1 view .LVU25
  93              		.loc 1 144 7 is_stmt 0 view .LVU26
  94 003a 2146     		mov	r1, r4
  95 003c 01A8     		add	r0, sp, #4
  96 003e 044B     		ldr	r3, .L3+8
  97 0040 9847     		blx	r3
  98              	.LVL2:
  99              		.loc 1 148 1 view .LVU27
 100 0042 10B0     		add	sp, sp, #64
 101              	.LCFI2:
 102              		.cfi_def_cfa_offset 8
 103              		@ sp needed
 104 0044 10BD     		pop	{r4, pc}
 105              	.L4:
 106 0046 00BF     		.align	2
 107              	.L3:
 108 0048 00000000 		.word	memset
 109 004c 00000000 		.word	HAL_RCC_OscConfig
 110 0050 00000000 		.word	HAL_RCC_ClockConfig
 111              		.cfi_endproc
 112              	.LFE70:
 114              		.section	.text.main,"ax",%progbits
 115              		.align	1
ARM GAS  C:\Users\MARKOM~1\AppData\Local\Temp\ccZEvdWF.s 			page 3


 116              		.global	main
 117              		.syntax unified
 118              		.thumb
 119              		.thumb_func
 120              		.fpu softvfp
 122              	main:
 123              	.LFB69:
 124              		.loc 1 68 1 is_stmt 1 view -0
 125              		.cfi_startproc
 126              		@ Volatile: function does not return.
 127              		@ args = 0, pretend = 0, frame = 0
 128              		@ frame_needed = 0, uses_anonymous_args = 0
 129 0000 08B5     		push	{r3, lr}
 130              	.LCFI3:
 131              		.cfi_def_cfa_offset 8
 132              		.cfi_offset 3, -8
 133              		.cfi_offset 14, -4
 134              		.loc 1 76 3 view .LVU29
 135 0002 094B     		ldr	r3, .L8
 136 0004 9847     		blx	r3
 137              	.LVL3:
 138              		.loc 1 83 3 view .LVU30
 139 0006 094B     		ldr	r3, .L8+4
 140 0008 9847     		blx	r3
 141              	.LVL4:
 142              		.loc 1 90 3 view .LVU31
 143 000a 094B     		ldr	r3, .L8+8
 144 000c 9847     		blx	r3
 145              	.LVL5:
 146              		.loc 1 91 3 view .LVU32
 147 000e 094B     		ldr	r3, .L8+12
 148 0010 9847     		blx	r3
 149              	.LVL6:
 150              		.loc 1 92 3 view .LVU33
 151 0012 094B     		ldr	r3, .L8+16
 152 0014 9847     		blx	r3
 153              	.LVL7:
 154              		.loc 1 94 3 view .LVU34
 155 0016 094B     		ldr	r3, .L8+20
 156 0018 9847     		blx	r3
 157              	.LVL8:
 158              		.loc 1 98 3 view .LVU35
 159 001a 094B     		ldr	r3, .L8+24
 160 001c 9847     		blx	r3
 161              	.LVL9:
 162              		.loc 1 99 3 view .LVU36
 163 001e 094B     		ldr	r3, .L8+28
 164 0020 9847     		blx	r3
 165              	.LVL10:
 166              		.loc 1 101 3 view .LVU37
 167 0022 094B     		ldr	r3, .L8+32
 168 0024 9847     		blx	r3
 169              	.LVL11:
 170              	.L6:
 171              		.loc 1 106 3 discriminator 1 view .LVU38
 172              		.loc 1 111 3 discriminator 1 view .LVU39
 173              		.loc 1 106 9 discriminator 1 view .LVU40
ARM GAS  C:\Users\MARKOM~1\AppData\Local\Temp\ccZEvdWF.s 			page 4


 174 0026 FEE7     		b	.L6
 175              	.L9:
 176              		.align	2
 177              	.L8:
 178 0028 00000000 		.word	HAL_Init
 179 002c 00000000 		.word	SystemClock_Config
 180 0030 00000000 		.word	MX_GPIO_Init
 181 0034 00000000 		.word	MX_USART1_UART_Init
 182 0038 00000000 		.word	MX_USART2_UART_Init
 183 003c 00000000 		.word	workInit
 184 0040 00000000 		.word	osKernelInitialize
 185 0044 00000000 		.word	MX_FREERTOS_Init
 186 0048 00000000 		.word	osKernelStart
 187              		.cfi_endproc
 188              	.LFE69:
 190              		.section	.text.HAL_TIM_PeriodElapsedCallback,"ax",%progbits
 191              		.align	1
 192              		.global	HAL_TIM_PeriodElapsedCallback
 193              		.syntax unified
 194              		.thumb
 195              		.thumb_func
 196              		.fpu softvfp
 198              	HAL_TIM_PeriodElapsedCallback:
 199              	.LVL12:
 200              	.LFB71:
 201              		.loc 1 163 1 view -0
 202              		.cfi_startproc
 203              		@ args = 0, pretend = 0, frame = 0
 204              		@ frame_needed = 0, uses_anonymous_args = 0
 205              		.loc 1 163 1 is_stmt 0 view .LVU42
 206 0000 08B5     		push	{r3, lr}
 207              	.LCFI4:
 208              		.cfi_def_cfa_offset 8
 209              		.cfi_offset 3, -8
 210              		.cfi_offset 14, -4
 211              		.loc 1 167 3 is_stmt 1 view .LVU43
 212              		.loc 1 167 11 is_stmt 0 view .LVU44
 213 0002 0268     		ldr	r2, [r0]
 214              		.loc 1 167 6 view .LVU45
 215 0004 034B     		ldr	r3, .L14
 216 0006 9A42     		cmp	r2, r3
 217 0008 00D0     		beq	.L13
 218              	.LVL13:
 219              	.L10:
 220              		.loc 1 173 1 view .LVU46
 221 000a 08BD     		pop	{r3, pc}
 222              	.LVL14:
 223              	.L13:
 224              		.loc 1 168 5 is_stmt 1 view .LVU47
 225 000c 024B     		ldr	r3, .L14+4
 226 000e 9847     		blx	r3
 227              	.LVL15:
 228              		.loc 1 173 1 is_stmt 0 view .LVU48
 229 0010 FBE7     		b	.L10
 230              	.L15:
 231 0012 00BF     		.align	2
 232              	.L14:
ARM GAS  C:\Users\MARKOM~1\AppData\Local\Temp\ccZEvdWF.s 			page 5


 233 0014 002C0140 		.word	1073818624
 234 0018 00000000 		.word	HAL_IncTick
 235              		.cfi_endproc
 236              	.LFE71:
 238              		.section	.text.Error_Handler,"ax",%progbits
 239              		.align	1
 240              		.global	Error_Handler
 241              		.syntax unified
 242              		.thumb
 243              		.thumb_func
 244              		.fpu softvfp
 246              	Error_Handler:
 247              	.LFB72:
 248              		.loc 1 180 1 is_stmt 1 view -0
 249              		.cfi_startproc
 250              		@ args = 0, pretend = 0, frame = 0
 251              		@ frame_needed = 0, uses_anonymous_args = 0
 252              		@ link register save eliminated.
 253              		.loc 1 185 1 view .LVU50
 254 0000 7047     		bx	lr
 255              		.cfi_endproc
 256              	.LFE72:
 258              		.text
 259              	.Letext0:
 260              		.file 2 "../c:\\users\\marko micovic\\desktop\\gnu mcu\\arm-none-eabi-gcc-9.3.1-1.1\\arm-none-eabi
 261              		.file 3 "../c:\\users\\marko micovic\\desktop\\gnu mcu\\arm-none-eabi-gcc-9.3.1-1.1\\arm-none-eabi
 262              		.file 4 "../Drivers/CMSIS/Include/core_cm3.h"
 263              		.file 5 "../Drivers/CMSIS/Device/ST/STM32F1xx/Include/system_stm32f1xx.h"
 264              		.file 6 "../Drivers/CMSIS/Device/ST/STM32F1xx/Include/stm32f103x6.h"
 265              		.file 7 "../Drivers/STM32F1xx_HAL_Driver/Inc/stm32f1xx_hal_def.h"
 266              		.file 8 "../Drivers/STM32F1xx_HAL_Driver/Inc/stm32f1xx_hal_rcc.h"
 267              		.file 9 "../Drivers/STM32F1xx_HAL_Driver/Inc/stm32f1xx_hal_rcc_ex.h"
 268              		.file 10 "../Drivers/STM32F1xx_HAL_Driver/Inc/stm32f1xx_hal_dma.h"
 269              		.file 11 "../Drivers/STM32F1xx_HAL_Driver/Inc/stm32f1xx_hal_tim.h"
 270              		.file 12 "../Drivers/STM32F1xx_HAL_Driver/Inc/stm32f1xx_hal_uart.h"
 271              		.file 13 "../Drivers/STM32F1xx_HAL_Driver/Inc/stm32f1xx_hal.h"
 272              		.file 14 "../Core/Inc/usart.h"
 273              		.file 15 "../Core/Inc/gpio.h"
 274              		.file 16 "../Core/Inc/work.h"
 275              		.file 17 "../Middlewares/Third_Party/FreeRTOS/Source/CMSIS_RTOS_V2/cmsis_os2.h"
 276              		.file 18 "../<built-in>"
ARM GAS  C:\Users\MARKOM~1\AppData\Local\Temp\ccZEvdWF.s 			page 6

