ARM GAS  C:\Users\MARKOM~1\AppData\Local\Temp\ccJoerZO.s 			page 1


   1              		.cpu cortex-m3
   2              		.eabi_attribute 20, 1
   3              		.eabi_attribute 21, 1
   4              		.eabi_attribute 23, 3
   5              		.eabi_attribute 24, 1
   6              		.eabi_attribute 25, 1
   7              		.eabi_attribute 26, 1
   8              		.eabi_attribute 30, 1
   9              		.eabi_attribute 34, 1
  10              		.eabi_attribute 18, 4
  11              		.file	"stm32f1xx_it.c"
  12              		.text
  13              	.Ltext0:
  14              		.cfi_sections	.debug_frame
  15              		.section	.text.NMI_Handler,"ax",%progbits
  16              		.align	1
  17              		.global	NMI_Handler
  18              		.arch armv7-m
  19              		.syntax unified
  20              		.thumb
  21              		.thumb_func
  22              		.fpu softvfp
  24              	NMI_Handler:
  25              	.LFB65:
  26              		.file 1 "../Core/Src/stm32f1xx_it.c"
   1:../Core/Src/stm32f1xx_it.c **** 
  27              		.loc 1 74 1 view -0
  28              		.cfi_startproc
  29              		@ args = 0, pretend = 0, frame = 0
  30              		@ frame_needed = 0, uses_anonymous_args = 0
  31              		@ link register save eliminated.
  32              		.loc 1 81 1 view .LVU1
  33 0000 7047     		bx	lr
  34              		.cfi_endproc
  35              	.LFE65:
  37              		.section	.text.HardFault_Handler,"ax",%progbits
  38              		.align	1
  39              		.global	HardFault_Handler
  40              		.syntax unified
  41              		.thumb
  42              		.thumb_func
  43              		.fpu softvfp
  45              	HardFault_Handler:
  46              	.LFB66:
  47              		.loc 1 87 1 view -0
  48              		.cfi_startproc
  49              		@ Volatile: function does not return.
  50              		@ args = 0, pretend = 0, frame = 0
  51              		@ frame_needed = 0, uses_anonymous_args = 0
  52              		@ link register save eliminated.
  53              	.L3:
  54              		.loc 1 91 3 discriminator 1 view .LVU3
  55              		.loc 1 95 3 discriminator 1 view .LVU4
  56              		.loc 1 91 9 discriminator 1 view .LVU5
  57 0000 FEE7     		b	.L3
  58              		.cfi_endproc
  59              	.LFE66:
ARM GAS  C:\Users\MARKOM~1\AppData\Local\Temp\ccJoerZO.s 			page 2


  61              		.section	.text.MemManage_Handler,"ax",%progbits
  62              		.align	1
  63              		.global	MemManage_Handler
  64              		.syntax unified
  65              		.thumb
  66              		.thumb_func
  67              		.fpu softvfp
  69              	MemManage_Handler:
  70              	.LFB67:
  71              		.loc 1 102 1 view -0
  72              		.cfi_startproc
  73              		@ Volatile: function does not return.
  74              		@ args = 0, pretend = 0, frame = 0
  75              		@ frame_needed = 0, uses_anonymous_args = 0
  76              		@ link register save eliminated.
  77              	.L5:
  78              		.loc 1 106 3 discriminator 1 view .LVU7
  79              		.loc 1 110 3 discriminator 1 view .LVU8
  80              		.loc 1 106 9 discriminator 1 view .LVU9
  81 0000 FEE7     		b	.L5
  82              		.cfi_endproc
  83              	.LFE67:
  85              		.section	.text.BusFault_Handler,"ax",%progbits
  86              		.align	1
  87              		.global	BusFault_Handler
  88              		.syntax unified
  89              		.thumb
  90              		.thumb_func
  91              		.fpu softvfp
  93              	BusFault_Handler:
  94              	.LFB68:
  95              		.loc 1 117 1 view -0
  96              		.cfi_startproc
  97              		@ Volatile: function does not return.
  98              		@ args = 0, pretend = 0, frame = 0
  99              		@ frame_needed = 0, uses_anonymous_args = 0
 100              		@ link register save eliminated.
 101              	.L7:
 102              		.loc 1 121 3 discriminator 1 view .LVU11
 103              		.loc 1 125 3 discriminator 1 view .LVU12
 104              		.loc 1 121 9 discriminator 1 view .LVU13
 105 0000 FEE7     		b	.L7
 106              		.cfi_endproc
 107              	.LFE68:
 109              		.section	.text.UsageFault_Handler,"ax",%progbits
 110              		.align	1
 111              		.global	UsageFault_Handler
 112              		.syntax unified
 113              		.thumb
 114              		.thumb_func
 115              		.fpu softvfp
 117              	UsageFault_Handler:
 118              	.LFB69:
 119              		.loc 1 132 1 view -0
 120              		.cfi_startproc
 121              		@ Volatile: function does not return.
 122              		@ args = 0, pretend = 0, frame = 0
ARM GAS  C:\Users\MARKOM~1\AppData\Local\Temp\ccJoerZO.s 			page 3


 123              		@ frame_needed = 0, uses_anonymous_args = 0
 124              		@ link register save eliminated.
 125              	.L9:
 126              		.loc 1 136 3 discriminator 1 view .LVU15
 127              		.loc 1 140 3 discriminator 1 view .LVU16
 128              		.loc 1 136 9 discriminator 1 view .LVU17
 129 0000 FEE7     		b	.L9
 130              		.cfi_endproc
 131              	.LFE69:
 133              		.section	.text.DebugMon_Handler,"ax",%progbits
 134              		.align	1
 135              		.global	DebugMon_Handler
 136              		.syntax unified
 137              		.thumb
 138              		.thumb_func
 139              		.fpu softvfp
 141              	DebugMon_Handler:
 142              	.LFB70:
 143              		.loc 1 147 1 view -0
 144              		.cfi_startproc
 145              		@ args = 0, pretend = 0, frame = 0
 146              		@ frame_needed = 0, uses_anonymous_args = 0
 147              		@ link register save eliminated.
 148              		.loc 1 154 1 view .LVU19
 149 0000 7047     		bx	lr
 150              		.cfi_endproc
 151              	.LFE70:
 153              		.section	.text.TIM1_UP_IRQHandler,"ax",%progbits
 154              		.align	1
 155              		.global	TIM1_UP_IRQHandler
 156              		.syntax unified
 157              		.thumb
 158              		.thumb_func
 159              		.fpu softvfp
 161              	TIM1_UP_IRQHandler:
 162              	.LFB71:
 163              		.loc 1 167 1 view -0
 164              		.cfi_startproc
 165              		@ args = 0, pretend = 0, frame = 0
 166              		@ frame_needed = 0, uses_anonymous_args = 0
 167 0000 08B5     		push	{r3, lr}
 168              	.LCFI0:
 169              		.cfi_def_cfa_offset 8
 170              		.cfi_offset 3, -8
 171              		.cfi_offset 14, -4
 172              		.loc 1 171 3 view .LVU21
 173 0002 0248     		ldr	r0, .L13
 174 0004 024B     		ldr	r3, .L13+4
 175 0006 9847     		blx	r3
 176              	.LVL0:
 177              		.loc 1 175 1 is_stmt 0 view .LVU22
 178 0008 08BD     		pop	{r3, pc}
 179              	.L14:
 180 000a 00BF     		.align	2
 181              	.L13:
 182 000c 00000000 		.word	htim1
 183 0010 00000000 		.word	HAL_TIM_IRQHandler
ARM GAS  C:\Users\MARKOM~1\AppData\Local\Temp\ccJoerZO.s 			page 4


 184              		.cfi_endproc
 185              	.LFE71:
 187              		.section	.text.USART1_IRQHandler,"ax",%progbits
 188              		.align	1
 189              		.global	USART1_IRQHandler
 190              		.syntax unified
 191              		.thumb
 192              		.thumb_func
 193              		.fpu softvfp
 195              	USART1_IRQHandler:
 196              	.LFB72:
 197              		.loc 1 181 1 is_stmt 1 view -0
 198              		.cfi_startproc
 199              		@ args = 0, pretend = 0, frame = 0
 200              		@ frame_needed = 0, uses_anonymous_args = 0
 201 0000 08B5     		push	{r3, lr}
 202              	.LCFI1:
 203              		.cfi_def_cfa_offset 8
 204              		.cfi_offset 3, -8
 205              		.cfi_offset 14, -4
 206              		.loc 1 185 3 view .LVU24
 207 0002 0248     		ldr	r0, .L17
 208 0004 024B     		ldr	r3, .L17+4
 209 0006 9847     		blx	r3
 210              	.LVL1:
 211              		.loc 1 189 1 is_stmt 0 view .LVU25
 212 0008 08BD     		pop	{r3, pc}
 213              	.L18:
 214 000a 00BF     		.align	2
 215              	.L17:
 216 000c 00000000 		.word	huart1
 217 0010 00000000 		.word	HAL_UART_IRQHandler
 218              		.cfi_endproc
 219              	.LFE72:
 221              		.section	.text.USART2_IRQHandler,"ax",%progbits
 222              		.align	1
 223              		.global	USART2_IRQHandler
 224              		.syntax unified
 225              		.thumb
 226              		.thumb_func
 227              		.fpu softvfp
 229              	USART2_IRQHandler:
 230              	.LFB73:
 231              		.loc 1 195 1 is_stmt 1 view -0
 232              		.cfi_startproc
 233              		@ args = 0, pretend = 0, frame = 0
 234              		@ frame_needed = 0, uses_anonymous_args = 0
 235 0000 08B5     		push	{r3, lr}
 236              	.LCFI2:
 237              		.cfi_def_cfa_offset 8
 238              		.cfi_offset 3, -8
 239              		.cfi_offset 14, -4
 240              		.loc 1 199 3 view .LVU27
 241 0002 0248     		ldr	r0, .L21
 242 0004 024B     		ldr	r3, .L21+4
 243 0006 9847     		blx	r3
 244              	.LVL2:
ARM GAS  C:\Users\MARKOM~1\AppData\Local\Temp\ccJoerZO.s 			page 5


 245              		.loc 1 203 1 is_stmt 0 view .LVU28
 246 0008 08BD     		pop	{r3, pc}
 247              	.L22:
 248 000a 00BF     		.align	2
 249              	.L21:
 250 000c 00000000 		.word	huart2
 251 0010 00000000 		.word	HAL_UART_IRQHandler
 252              		.cfi_endproc
 253              	.LFE73:
 255              		.text
 256              	.Letext0:
 257              		.file 2 "../c:\\users\\marko micovic\\desktop\\gnu mcu\\arm-none-eabi-gcc-9.3.1-1.1\\arm-none-eabi
 258              		.file 3 "../c:\\users\\marko micovic\\desktop\\gnu mcu\\arm-none-eabi-gcc-9.3.1-1.1\\arm-none-eabi
 259              		.file 4 "../Drivers/CMSIS/Include/core_cm3.h"
 260              		.file 5 "../Drivers/CMSIS/Device/ST/STM32F1xx/Include/system_stm32f1xx.h"
 261              		.file 6 "../Drivers/CMSIS/Device/ST/STM32F1xx/Include/stm32f103x6.h"
 262              		.file 7 "../Drivers/STM32F1xx_HAL_Driver/Inc/stm32f1xx_hal_def.h"
 263              		.file 8 "../Drivers/STM32F1xx_HAL_Driver/Inc/stm32f1xx_hal_dma.h"
 264              		.file 9 "../Drivers/STM32F1xx_HAL_Driver/Inc/stm32f1xx_hal_tim.h"
 265              		.file 10 "../Drivers/STM32F1xx_HAL_Driver/Inc/stm32f1xx_hal_uart.h"
 266              		.file 11 "../Drivers/STM32F1xx_HAL_Driver/Inc/stm32f1xx_hal.h"
ARM GAS  C:\Users\MARKOM~1\AppData\Local\Temp\ccJoerZO.s 			page 6

